target datalayout = "e-m:e-p270:32:32-p271:32:32-p272:64:64-i64:64-i128:128-f80:128-n8:16:32:64-S128"
target triple = "x86_64-pc-linux-gnu"

; Function Attrs: mustprogress nounwind uwtable
define noundef signext i8 @_ZN6icu_7717DateFormatSymbols14isNumericFieldE16UDateFormatFieldi(i32 noundef %0, i32 noundef %1) #0 align 2 {
  %3 = alloca i8, align 1
  %4 = alloca i32, align 4
  %5 = alloca i32, align 4
  %6 = alloca i64, align 8
  store i32 %0, ptr %4, align 4, !tbaa !166
  store i32 %1, ptr %5, align 4, !tbaa !14
  %7 = load i32, ptr %4, align 4, !tbaa !166
  %8 = icmp eq i32 %7, 38
  br i1 %8, label %9, label %10

9:                                                ; preds = %2
  store i8 0, ptr %3, align 1
  br label %29

10:                                               ; preds = %2
  call void @llvm.lifetime.start.p0(i64 8, ptr %6) #14
  %11 = load i32, ptr %4, align 4, !tbaa !166
  %12 = zext i32 %11 to i64
  %13 = shl i64 1, %12
  store i64 %13, ptr %6, align 8, !tbaa !18
  %14 = load i64, ptr %6, align 8, !tbaa !18
  %15 = and i64 17187585530, %14
  %16 = icmp ne i64 %15, 0
  br i1 %16, label %26, label %17

17:                                               ; preds = %10
  %18 = load i64, ptr %6, align 8, !tbaa !18
  %19 = and i64 503840772, %18
  %20 = icmp ne i64 %19, 0
  br i1 %20, label %21, label %24

21:                                               ; preds = %17
  %22 = load i32, ptr %5, align 4, !tbaa !14
  %23 = icmp slt i32 %22, 3
  br label %24

24:                                               ; preds = %21, %17
  %25 = phi i1 [ false, %17 ], [ %23, %21 ]
  br label %26

26:                                               ; preds = %24, %10
  %27 = phi i1 [ true, %10 ], [ %25, %24 ]
  %28 = zext i1 %27 to i8
  store i8 %28, ptr %3, align 1
  call void @llvm.lifetime.end.p0(i64 8, ptr %6) #14
  br label %29

29:                                               ; preds = %26, %9
  %30 = load i8, ptr %3, align 1
  ret i8 %30
}

; Function Attrs: mustprogress nounwind uwtable
define noundef i32 @_ZN6icu_7717DateFormatSymbols19getPatternCharIndexEDs(i16 noundef zeroext %0) #0 align 2 {
  %2 = alloca i32, align 4
  %3 = alloca i16, align 2
  %4 = alloca i8, align 1
  store i16 %0, ptr %3, align 2, !tbaa !164
  %5 = load i16, ptr %3, align 2, !tbaa !164
  %6 = zext i16 %5 to i32
  %7 = icmp sge i32 %6, 128
  br i1 %7, label %8, label %9

8:                                                ; preds = %1
  store i32 38, ptr %2, align 4
  br label %23

9:                                                ; preds = %1
  call void @llvm.lifetime.start.p0(i64 1, ptr %4) #14
  %10 = load i16, ptr %3, align 2, !tbaa !164
  %11 = zext i16 %10 to i64
  %12 = getelementptr inbounds nuw [128 x i8], ptr @_ZL19gLookupPatternChars, i64 0, i64 %11
  %13 = load i8, ptr %12, align 1, !tbaa !51
  store i8 %13, ptr %4, align 1, !tbaa !51
  %14 = load i8, ptr %4, align 1, !tbaa !51
  %15 = sext i8 %14 to i32
  %16 = icmp eq i32 %15, -1
  br i1 %16, label %17, label %18

17:                                               ; preds = %9
  br label %21

18:                                               ; preds = %9
  %19 = load i8, ptr %4, align 1, !tbaa !51
  %20 = sext i8 %19 to i32
  br label %21

21:                                               ; preds = %18, %17
  %22 = phi i32 [ 38, %17 ], [ %20, %18 ]
  store i32 %22, ptr %2, align 4
  call void @llvm.lifetime.end.p0(i64 1, ptr %4) #14
  br label %23

23:                                               ; preds = %21, %8
  %24 = load i32, ptr %2, align 4
  ret i32 %24
}

; Function Attrs: mustprogress nounwind uwtable
define noundef signext i8 @_ZN6icu_7717DateFormatSymbols20isNumericPatternCharEDsi(i16 noundef zeroext %0, i32 noundef %1) #0 align 2 {
  %3 = alloca i16, align 2
  %4 = alloca i32, align 4
  store i16 %0, ptr %3, align 2, !tbaa !164
  store i32 %1, ptr %4, align 4, !tbaa !14
  %5 = load i16, ptr %3, align 2, !tbaa !164
  %6 = call noundef i32 @_ZN6icu_7717DateFormatSymbols19getPatternCharIndexEDs(i16 noundef zeroext %5)
  %7 = load i32, ptr %4, align 4, !tbaa !14
  %8 = call noundef signext i8 @_ZN6icu_7717DateFormatSymbols14isNumericFieldE16UDateFormatFieldi(i32 noundef %6, i32 noundef %7)
  ret i8 %8
}