; Function Attrs: mustprogress nofree norecurse nosync nounwind willreturn memory(none) uwtable
define noundef signext range(i8 0, 2) i8 @_ZN6icu_7717DateFormatSymbols20isNumericPatternCharEDsi(i16 noundef zeroext %0, i32 noundef %1) local_unnamed_addr #11 align 2 {
  %3 = icmp ugt i16 %0, 127
  br i1 %3, label %_ZN6icu_7717DateFormatSymbols14isNumericFieldE16UDateFormatFieldi.exit, label %_ZN6icu_7717DateFormatSymbols19getPatternCharIndexEDs.exit

_ZN6icu_7717DateFormatSymbols19getPatternCharIndexEDs.exit: ; preds = %2
  %4 = zext nneg i16 %0 to i64
  %5 = getelementptr inbounds nuw [128 x i8], ptr @_ZL19gLookupPatternChars, i64 0, i64 %4
  %6 = load i8, ptr %5, align 1, !tbaa !23
  %7 = icmp eq i8 %6, -1
  br i1 %7, label %_ZN6icu_7717DateFormatSymbols14isNumericFieldE16UDateFormatFieldi.exit, label %8

8:                                                ; preds = %_ZN6icu_7717DateFormatSymbols19getPatternCharIndexEDs.exit
  %9 = sext i8 %6 to i64
  %10 = and i64 %9, 4294967295
  %11 = shl nuw i64 1, %10
  %12 = and i64 %11, 17187585530
  %.not.i = icmp eq i64 %12, 0
  br i1 %.not.i, label %13, label %_ZN6icu_7717DateFormatSymbols14isNumericFieldE16UDateFormatFieldi.exit

13:                                               ; preds = %8
  %14 = and i64 %11, 503840772
  %15 = icmp ne i64 %14, 0
  %16 = icmp slt i32 %1, 3
  %17 = and i1 %16, %15
  %18 = zext i1 %17 to i8
  br label %_ZN6icu_7717DateFormatSymbols14isNumericFieldE16UDateFormatFieldi.exit

_ZN6icu_7717DateFormatSymbols14isNumericFieldE16UDateFormatFieldi.exit: ; preds = %2, %_ZN6icu_7717DateFormatSymbols19getPatternCharIndexEDs.exit, %8, %13
  %.0.i2 = phi i8 [ 0, %_ZN6icu_7717DateFormatSymbols19getPatternCharIndexEDs.exit ], [ 1, %8 ], [ %18, %13 ], [ 0, %2 ]
  ret i8 %.0.i2
}